target datalayout = "e-m:e-p270:32:32-p271:32:32-p272:64:64-i64:64-i128:128-f80:128-n8:16:32:64-S128"
target triple = "x86_64-pc-linux-gnu"

%struct._zend_extension = type { ptr, ptr, ptr, ptr, ptr, ptr, ptr, ptr, ptr, ptr, ptr, ptr, ptr, ptr, ptr, ptr, ptr, ptr, ptr, ptr, ptr, ptr, ptr, ptr, ptr, i32 }

@.str.13 = private unnamed_addr constant [13 x i8] c"Zend OPcache\00", align 1

; Function Attrs: nounwind uwtable
define internal i32 @accelerator_remove_cb(ptr noundef %0, ptr noundef %1) #0 {
  %3 = alloca ptr, align 8
  %4 = alloca ptr, align 8
  store ptr %0, ptr %3, align 8, !tbaa !301
  store ptr %1, ptr %4, align 8, !tbaa !301
  %5 = load ptr, ptr %3, align 8, !tbaa !301
  %6 = getelementptr inbounds nuw %struct._zend_extension, ptr %5, i32 0, i32 0
  %7 = load ptr, ptr %6, align 8, !tbaa !326
  %8 = call i32 @strcmp(ptr noundef %7, ptr noundef @.str.13) #22
  %9 = icmp ne i32 %8, 0
  br i1 %9, label %19, label %10

10:                                               ; preds = %2
  %11 = load ptr, ptr %3, align 8, !tbaa !301
  %12 = getelementptr inbounds nuw %struct._zend_extension, ptr %11, i32 0, i32 5
  store ptr null, ptr %12, align 8, !tbaa !327
  %13 = load ptr, ptr %3, align 8, !tbaa !301
  %14 = getelementptr inbounds nuw %struct._zend_extension, ptr %13, i32 0, i32 7
  store ptr null, ptr %14, align 8, !tbaa !328
  %15 = load ptr, ptr %3, align 8, !tbaa !301
  %16 = getelementptr inbounds nuw %struct._zend_extension, ptr %15, i32 0, i32 8
  store ptr null, ptr %16, align 8, !tbaa !329
  %17 = load ptr, ptr %3, align 8, !tbaa !301
  %18 = getelementptr inbounds nuw %struct._zend_extension, ptr %17, i32 0, i32 10
  store ptr null, ptr %18, align 8, !tbaa !330
  br label %19

19:                                               ; preds = %10, %2
  ret i32 0
}